target datalayout = "e-m:e-p270:32:32-p271:32:32-p272:64:64-i64:64-i128:128-f80:128-n8:16:32:64-S128"
target triple = "x86_64-pc-linux-gnu"

%struct.AVFilterLink = type { ptr, ptr, ptr, ptr, i32, i32, i32, i32, %struct.AVRational, i32, i32, i32, %struct.AVChannelLayout, %struct.AVRational, ptr, i32, %struct.AVFilterFormatsConfig, %struct.AVFilterFormatsConfig }
%struct.AVChannelLayout = type { i32, i32, %union.anon.1, ptr }
%union.anon.1 = type { i64 }
%struct.AVRational = type { i32, i32 }
%struct.AVFilterFormatsConfig = type { ptr, ptr, ptr, ptr, ptr }
%struct.AVFilterContext = type { ptr, ptr, ptr, ptr, ptr, i32, ptr, ptr, i32, ptr, ptr, i32, i32, ptr, ptr, ptr, ptr, i32, ptr, i32, i32 }
%struct.AudioContrastContext = type { ptr, float, ptr }

; Function Attrs: nounwind uwtable
define internal i32 @config_input(ptr noundef %0) #0 {
  %2 = alloca ptr, align 8
  %3 = alloca ptr, align 8
  %4 = alloca ptr, align 8
  store ptr %0, ptr %2, align 8, !tbaa !4
  call void @llvm.lifetime.start.p0(i64 8, ptr %3) #4
  %5 = load ptr, ptr %2, align 8, !tbaa !4
  %6 = getelementptr inbounds nuw %struct.AVFilterLink, ptr %5, i32 0, i32 2
  %7 = load ptr, ptr %6, align 8, !tbaa !11
  store ptr %7, ptr %3, align 8, !tbaa !23
  call void @llvm.lifetime.start.p0(i64 8, ptr %4) #4
  %8 = load ptr, ptr %3, align 8, !tbaa !23
  %9 = getelementptr inbounds nuw %struct.AVFilterContext, ptr %8, i32 0, i32 9
  %10 = load ptr, ptr %9, align 8, !tbaa !34
  store ptr %10, ptr %4, align 8, !tbaa !35
  %11 = load ptr, ptr %2, align 8, !tbaa !4
  %12 = getelementptr inbounds nuw %struct.AVFilterLink, ptr %11, i32 0, i32 5
  %13 = load i32, ptr %12, align 4, !tbaa !49
  switch i32 %13, label %26 [
    i32 3, label %14
    i32 4, label %17
    i32 8, label %20
    i32 9, label %23
  ]

14:                                               ; preds = %1
  %15 = load ptr, ptr %4, align 8, !tbaa !35
  %16 = getelementptr inbounds nuw %struct.AudioContrastContext, ptr %15, i32 0, i32 2
  store ptr @filter_flt, ptr %16, align 8, !tbaa !43
  br label %26

17:                                               ; preds = %1
  %18 = load ptr, ptr %4, align 8, !tbaa !35
  %19 = getelementptr inbounds nuw %struct.AudioContrastContext, ptr %18, i32 0, i32 2
  store ptr @filter_dbl, ptr %19, align 8, !tbaa !43
  br label %26

20:                                               ; preds = %1
  %21 = load ptr, ptr %4, align 8, !tbaa !35
  %22 = getelementptr inbounds nuw %struct.AudioContrastContext, ptr %21, i32 0, i32 2
  store ptr @filter_fltp, ptr %22, align 8, !tbaa !43
  br label %26

23:                                               ; preds = %1
  %24 = load ptr, ptr %4, align 8, !tbaa !35
  %25 = getelementptr inbounds nuw %struct.AudioContrastContext, ptr %24, i32 0, i32 2
  store ptr @filter_dblp, ptr %25, align 8, !tbaa !43
  br label %26

26:                                               ; preds = %1, %23, %20, %17, %14
  call void @llvm.lifetime.end.p0(i64 8, ptr %4) #4
  call void @llvm.lifetime.end.p0(i64 8, ptr %3) #4
  ret i32 0
}