; Function Attrs: mustprogress nofree norecurse nosync nounwind willreturn memory(readwrite, inaccessiblemem: none) uwtable
define internal noundef i32 @config_input(ptr noundef readonly captures(none) %0) #1 {
  %2 = getelementptr inbounds nuw i8, ptr %0, i64 36
  %3 = load i32, ptr %2, align 4, !tbaa !46
  %switch.tableidx = add i32 %3, -3
  %4 = icmp ult i32 %switch.tableidx, 7
  %switch.maskindex = trunc i32 %switch.tableidx to i8
  %switch.shifted = lshr i8 99, %switch.maskindex
  %switch.lobit = trunc i8 %switch.shifted to i1
  %or.cond = select i1 %4, i1 %switch.lobit, i1 false
  br i1 %or.cond, label %switch.lookup, label %11

switch.lookup:                                    ; preds = %1
  %5 = getelementptr inbounds nuw i8, ptr %0, i64 16
  %6 = load ptr, ptr %5, align 8, !tbaa !9
  %7 = getelementptr inbounds nuw i8, ptr %6, i64 72
  %8 = load ptr, ptr %7, align 8, !tbaa !33
  %9 = zext nneg i32 %switch.tableidx to i64
  %switch.gep = getelementptr inbounds nuw [7 x ptr], ptr @switch.table.config_input, i64 0, i64 %9
  %switch.load = load ptr, ptr %switch.gep, align 8
  %10 = getelementptr inbounds nuw i8, ptr %8, i64 16
  store ptr %switch.load, ptr %10, align 8, !tbaa !40
  br label %11

11:                                               ; preds = %1, %switch.lookup
  ret i32 0
}